target datalayout = "e-m:e-p270:32:32-p271:32:32-p272:64:64-i64:64-i128:128-f80:128-n8:16:32:64-S128"
target triple = "x86_64-pc-linux-gnu"

%struct.mq = type { ptr, i32, i32, ptr, ptr, i64, ptr, i64, ptr, i64, ptr, i8, ptr, ptr, [10 x %struct.mq_item] }
%struct.mq_item = type { i32, i64, i64 }

; Function Attrs: nounwind uwtable
define hidden signext i8 @nfaExecTamarama_QR(ptr noundef %0, ptr noundef %1, i32 noundef %2) #0 {
  %4 = alloca ptr, align 8
  %5 = alloca ptr, align 8
  %6 = alloca i32, align 4
  %7 = alloca %struct.mq, align 8
  %8 = alloca i8, align 1
  %9 = alloca ptr, align 8
  store ptr %0, ptr %4, align 8
  store ptr %1, ptr %5, align 8
  store i32 %2, ptr %6, align 4
  br label %10

10:                                               ; preds = %3
  br label %11

11:                                               ; preds = %10
  call void @llvm.lifetime.start.p0(i64 344, ptr %7) #5
  %12 = getelementptr inbounds nuw %struct.mq, ptr %7, i32 0, i32 2
  store i32 0, ptr %12, align 4
  %13 = getelementptr inbounds nuw %struct.mq, ptr %7, i32 0, i32 1
  store i32 0, ptr %13, align 8
  call void @llvm.lifetime.start.p0(i64 1, ptr %8) #5
  store i8 0, ptr %8, align 1
  call void @llvm.lifetime.start.p0(i64 8, ptr %9) #5
  %14 = load ptr, ptr %4, align 8
  %15 = getelementptr inbounds nuw i8, ptr %14, i64 64
  store ptr %15, ptr %9, align 8
  br label %16

16:                                               ; preds = %24, %11
  %17 = load ptr, ptr %5, align 8
  %18 = getelementptr inbounds nuw %struct.mq, ptr %17, i32 0, i32 1
  %19 = load i32, ptr %18, align 8
  %20 = load ptr, ptr %5, align 8
  %21 = getelementptr inbounds nuw %struct.mq, ptr %20, i32 0, i32 2
  %22 = load i32, ptr %21, align 4
  %23 = icmp ult i32 %19, %22
  br i1 %23, label %24, label %27

24:                                               ; preds = %16
  %25 = load ptr, ptr %9, align 8
  %26 = load ptr, ptr %5, align 8
  call void @updateQueues(ptr noundef %25, ptr noundef %26, ptr noundef %7)
  br label %16

27:                                               ; preds = %16
  %28 = getelementptr inbounds nuw %struct.mq, ptr %7, i32 0, i32 1
  %29 = load i32, ptr %28, align 8
  %30 = getelementptr inbounds nuw %struct.mq, ptr %7, i32 0, i32 2
  %31 = load i32, ptr %30, align 4
  %32 = icmp ult i32 %29, %31
  br i1 %32, label %33, label %38

33:                                               ; preds = %27
  %34 = getelementptr inbounds nuw %struct.mq, ptr %7, i32 0, i32 0
  %35 = load ptr, ptr %34, align 8
  %36 = load i32, ptr %6, align 4
  %37 = call signext i8 @nfaQueueExecRose(ptr noundef %35, ptr noundef %7, i32 noundef %36)
  store i8 %37, ptr %8, align 1
  br label %38

38:                                               ; preds = %33, %27
  br label %39

39:                                               ; preds = %38
  br label %40

40:                                               ; preds = %39
  br label %41

41:                                               ; preds = %40
  %42 = load i8, ptr %8, align 1
  call void @llvm.lifetime.end.p0(i64 8, ptr %9) #5
  call void @llvm.lifetime.end.p0(i64 1, ptr %8) #5
  call void @llvm.lifetime.end.p0(i64 344, ptr %7) #5
  ret i8 %42
}