; Function Attrs: nounwind uwtable
define hidden signext i8 @nfaExecTamarama_QR(ptr noundef %0, ptr noundef captures(none) %1, i32 noundef %2) local_unnamed_addr #0 {
  %4 = alloca %struct.mq, align 8
  call void @llvm.lifetime.start.p0(i64 344, ptr nonnull %4) #7
  %5 = getelementptr inbounds nuw i8, ptr %4, i64 12
  store i32 0, ptr %5, align 4
  %6 = getelementptr inbounds nuw i8, ptr %4, i64 8
  store i32 0, ptr %6, align 8
  %7 = getelementptr inbounds nuw i8, ptr %0, i64 64
  %8 = getelementptr inbounds nuw i8, ptr %1, i64 8
  %9 = getelementptr inbounds nuw i8, ptr %1, i64 12
  %10 = load i32, ptr %8, align 8
  %11 = load i32, ptr %9, align 4
  %12 = icmp ult i32 %10, %11
  br i1 %12, label %.lr.ph, label %._crit_edge.thread

.lr.ph:                                           ; preds = %3, %.lr.ph
  call fastcc void @updateQueues(ptr noundef nonnull %7, ptr noundef nonnull %1, ptr noundef %4)
  %13 = load i32, ptr %8, align 8
  %14 = load i32, ptr %9, align 4
  %15 = icmp ult i32 %13, %14
  br i1 %15, label %.lr.ph, label %._crit_edge

._crit_edge:                                      ; preds = %.lr.ph
  %.pre = load i32, ptr %6, align 8
  %.pre6 = load i32, ptr %5, align 4
  %16 = icmp ult i32 %.pre, %.pre6
  br i1 %16, label %17, label %._crit_edge.thread

17:                                               ; preds = %._crit_edge
  %18 = load ptr, ptr %4, align 8
  %19 = call signext i8 @nfaQueueExecRose(ptr noundef %18, ptr noundef nonnull %4, i32 noundef %2) #7
  br label %._crit_edge.thread

._crit_edge.thread:                               ; preds = %3, %._crit_edge, %17
  %.0 = phi i8 [ %19, %17 ], [ 0, %._crit_edge ], [ 0, %3 ]
  call void @llvm.lifetime.end.p0(i64 344, ptr nonnull %4) #7
  ret i8 %.0
}